; Function Attrs: mustprogress uwtable
define dso_local { ptr, ptr } @_ZN4Luau20DataFlowGraphBuilder9visitExprEPNS_12AstExprLocalE(ptr noundef nonnull align 8 dereferenceable(336) %0, ptr noundef readonly captures(none) %1) local_unnamed_addr #2 align 2 {
  %3 = getelementptr inbounds nuw i8, ptr %1, i64 32
  %4 = load ptr, ptr %3, align 8, !tbaa !336
  %5 = tail call ptr @_ZN4Luau20DataFlowGraphBuilder6lookupENS_6SymbolE(ptr noundef nonnull align 8 dereferenceable(336) %0, ptr %4, ptr null)
  %6 = getelementptr inbounds nuw i8, ptr %0, i64 224
  %7 = load ptr, ptr %6, align 8, !tbaa !191
  %8 = tail call noundef ptr @_ZN4Luau18RefinementKeyArena4leafENS_7NotNullIKNS_3DefEEE(ptr noundef nonnull align 8 dereferenceable(40) %7, ptr %5)
  %.fca.0.insert = insertvalue { ptr, ptr } poison, ptr %5, 0
  %.fca.1.insert = insertvalue { ptr, ptr } %.fca.0.insert, ptr %8, 1
  ret { ptr, ptr } %.fca.1.insert
}